target datalayout = "e-m:e-p270:32:32-p271:32:32-p272:64:64-i64:64-i128:128-f80:128-n8:16:32:64-S128"
target triple = "x86_64-unknown-linux-gnu"

%struct.vfio_precopy_info = type { i32, i32, i64, i64 }
%struct.VFIODevice = type { %struct.anon, %struct.anon.0, %struct.anon.1, ptr, ptr, ptr, ptr, ptr, i32, i32, i8, i8, i8, i8, i32, ptr, i32, i32, i32, ptr, ptr, i32, i8, i8 }
%struct.anon = type { ptr, ptr }
%struct.anon.0 = type { ptr, ptr }
%struct.anon.1 = type { ptr, ptr }
%struct.VFIOMigration = type { ptr, ptr, %struct.Notifier, i32, i32, ptr, i64, i64, i64, i64, i8 }
%struct.Notifier = type { ptr, %struct.anon.2 }
%struct.anon.2 = type { ptr, ptr }
%struct.vfio_device_feature = type { i32, i32, [0 x i8] }
%struct.timeval = type { i64, i64 }
%struct.vfio_device_feature_mig_data_size = type { i64 }

@trace_events_enabled_count = external global i32, align 4
@message_with_timestamp = external global i8, align 1
@qemu_loglevel = external global i32, align 4
@__const.vfio_query_precopy_size.precopy = private unnamed_addr constant %struct.vfio_precopy_info { i32 24, i32 0, i64 0, i64 0 }, align 8
@_TRACE_VFIO_STATE_PENDING_EXACT_DSTATE = external global i16, align 2
@.str.46 = private unnamed_addr constant [146 x i8] c"%d@%zu.%06zu:vfio_state_pending_exact  (%s) precopy 0x%lx postcopy 0x%lx stopcopy size 0x%lx precopy initial size 0x%lx precopy dirty size 0x%lx\0A\00", align 1
@.str.47 = private unnamed_addr constant [133 x i8] c"vfio_state_pending_exact  (%s) precopy 0x%lx postcopy 0x%lx stopcopy size 0x%lx precopy initial size 0x%lx precopy dirty size 0x%lx\0A\00", align 1

; Function Attrs: nounwind sspstrong uwtable
define internal zeroext i1 @qemu_loglevel_mask(i32 noundef %mask) #0 {
entry:
  %mask.addr = alloca i32, align 4
  store i32 %mask, ptr %mask.addr, align 4
  %0 = load i32, ptr @qemu_loglevel, align 4
  %1 = load i32, ptr %mask.addr, align 4
  %and = and i32 %0, %1
  %cmp = icmp ne i32 %and, 0
  ret i1 %cmp
}

; Function Attrs: nounwind sspstrong uwtable
define internal void @_nocheck__trace_vfio_state_pending_exact(ptr noundef %name, i64 noundef %precopy, i64 noundef %postcopy, i64 noundef %stopcopy_size, i64 noundef %precopy_init_size, i64 noundef %precopy_dirty_size) #0 {
entry:
  %name.addr = alloca ptr, align 8
  %precopy.addr = alloca i64, align 8
  %postcopy.addr = alloca i64, align 8
  %stopcopy_size.addr = alloca i64, align 8
  %precopy_init_size.addr = alloca i64, align 8
  %precopy_dirty_size.addr = alloca i64, align 8
  %_now = alloca %struct.timeval, align 8
  store ptr %name, ptr %name.addr, align 8
  store i64 %precopy, ptr %precopy.addr, align 8
  store i64 %postcopy, ptr %postcopy.addr, align 8
  store i64 %stopcopy_size, ptr %stopcopy_size.addr, align 8
  store i64 %precopy_init_size, ptr %precopy_init_size.addr, align 8
  store i64 %precopy_dirty_size, ptr %precopy_dirty_size.addr, align 8
  %0 = load i32, ptr @trace_events_enabled_count, align 4
  %tobool = icmp ne i32 %0, 0
  %lnot = xor i1 %tobool, true
  %lnot1 = xor i1 %lnot, true
  %lnot.ext = zext i1 %lnot1 to i32
  %conv = sext i32 %lnot.ext to i64
  %tobool2 = icmp ne i64 %conv, 0
  br i1 %tobool2, label %land.lhs.true, label %if.end11

land.lhs.true:                                    ; preds = %entry
  %1 = load i16, ptr @_TRACE_VFIO_STATE_PENDING_EXACT_DSTATE, align 2
  %conv3 = zext i16 %1 to i32
  %tobool4 = icmp ne i32 %conv3, 0
  br i1 %tobool4, label %land.lhs.true5, label %if.end11

land.lhs.true5:                                   ; preds = %land.lhs.true
  %call = call zeroext i1 @qemu_loglevel_mask(i32 noundef 32768)
  br i1 %call, label %if.then, label %if.end11

if.then:                                          ; preds = %land.lhs.true5
  %2 = load i8, ptr @message_with_timestamp, align 1
  %tobool7 = trunc i8 %2 to i1
  br i1 %tobool7, label %if.then8, label %if.else

if.then8:                                         ; preds = %if.then
  %call9 = call i32 @gettimeofday(ptr noundef %_now, ptr noundef null) #9
  %call10 = call i32 @qemu_get_thread_id()
  %tv_sec = getelementptr inbounds %struct.timeval, ptr %_now, i32 0, i32 0
  %3 = load i64, ptr %tv_sec, align 8
  %tv_usec = getelementptr inbounds %struct.timeval, ptr %_now, i32 0, i32 1
  %4 = load i64, ptr %tv_usec, align 8
  %5 = load ptr, ptr %name.addr, align 8
  %6 = load i64, ptr %precopy.addr, align 8
  %7 = load i64, ptr %postcopy.addr, align 8
  %8 = load i64, ptr %stopcopy_size.addr, align 8
  %9 = load i64, ptr %precopy_init_size.addr, align 8
  %10 = load i64, ptr %precopy_dirty_size.addr, align 8
  call void (ptr, ...) @qemu_log(ptr noundef @.str.46, i32 noundef %call10, i64 noundef %3, i64 noundef %4, ptr noundef %5, i64 noundef %6, i64 noundef %7, i64 noundef %8, i64 noundef %9, i64 noundef %10)
  br label %if.end

if.else:                                          ; preds = %if.then
  %11 = load ptr, ptr %name.addr, align 8
  %12 = load i64, ptr %precopy.addr, align 8
  %13 = load i64, ptr %postcopy.addr, align 8
  %14 = load i64, ptr %stopcopy_size.addr, align 8
  %15 = load i64, ptr %precopy_init_size.addr, align 8
  %16 = load i64, ptr %precopy_dirty_size.addr, align 8
  call void (ptr, ...) @qemu_log(ptr noundef @.str.47, ptr noundef %11, i64 noundef %12, i64 noundef %13, i64 noundef %14, i64 noundef %15, i64 noundef %16)
  br label %if.end

if.end:                                           ; preds = %if.else, %if.then8
  br label %if.end11

if.end11:                                         ; preds = %if.end, %land.lhs.true5, %land.lhs.true, %entry
  ret void
}

; Function Attrs: nounwind sspstrong uwtable
define internal void @trace_vfio_state_pending_exact(ptr noundef %name, i64 noundef %precopy, i64 noundef %postcopy, i64 noundef %stopcopy_size, i64 noundef %precopy_init_size, i64 noundef %precopy_dirty_size) #0 {
entry:
  %name.addr = alloca ptr, align 8
  %precopy.addr = alloca i64, align 8
  %postcopy.addr = alloca i64, align 8
  %stopcopy_size.addr = alloca i64, align 8
  %precopy_init_size.addr = alloca i64, align 8
  %precopy_dirty_size.addr = alloca i64, align 8
  store ptr %name, ptr %name.addr, align 8
  store i64 %precopy, ptr %precopy.addr, align 8
  store i64 %postcopy, ptr %postcopy.addr, align 8
  store i64 %stopcopy_size, ptr %stopcopy_size.addr, align 8
  store i64 %precopy_init_size, ptr %precopy_init_size.addr, align 8
  store i64 %precopy_dirty_size, ptr %precopy_dirty_size.addr, align 8
  %0 = load ptr, ptr %name.addr, align 8
  %1 = load i64, ptr %precopy.addr, align 8
  %2 = load i64, ptr %postcopy.addr, align 8
  %3 = load i64, ptr %stopcopy_size.addr, align 8
  %4 = load i64, ptr %precopy_init_size.addr, align 8
  %5 = load i64, ptr %precopy_dirty_size.addr, align 8
  call void @_nocheck__trace_vfio_state_pending_exact(ptr noundef %0, i64 noundef %1, i64 noundef %2, i64 noundef %3, i64 noundef %4, i64 noundef %5)
  ret void
}

; Function Attrs: nounwind sspstrong uwtable
define internal i32 @vfio_query_precopy_size(ptr noundef %migration) #0 {
entry:
  %retval = alloca i32, align 4
  %migration.addr = alloca ptr, align 8
  %precopy = alloca %struct.vfio_precopy_info, align 8
  store ptr %migration, ptr %migration.addr, align 8
  call void @llvm.memcpy.p0.p0.i64(ptr align 8 %precopy, ptr align 8 @__const.vfio_query_precopy_size.precopy, i64 24, i1 false)
  %0 = load ptr, ptr %migration.addr, align 8
  %precopy_init_size = getelementptr inbounds %struct.VFIOMigration, ptr %0, i32 0, i32 8
  store i64 0, ptr %precopy_init_size, align 8
  %1 = load ptr, ptr %migration.addr, align 8
  %precopy_dirty_size = getelementptr inbounds %struct.VFIOMigration, ptr %1, i32 0, i32 9
  store i64 0, ptr %precopy_dirty_size, align 8
  %2 = load ptr, ptr %migration.addr, align 8
  %data_fd = getelementptr inbounds %struct.VFIOMigration, ptr %2, i32 0, i32 4
  %3 = load i32, ptr %data_fd, align 4
  %call = call i32 (i32, i64, ...) @ioctl(i32 noundef %3, i64 noundef 15225, ptr noundef %precopy) #9
  %tobool = icmp ne i32 %call, 0
  br i1 %tobool, label %if.then, label %if.end

if.then:                                          ; preds = %entry
  %call1 = call ptr @__errno_location() #11
  %4 = load i32, ptr %call1, align 4
  %sub = sub i32 0, %4
  store i32 %sub, ptr %retval, align 4
  br label %return

if.end:                                           ; preds = %entry
  %initial_bytes = getelementptr inbounds %struct.vfio_precopy_info, ptr %precopy, i32 0, i32 2
  %5 = load i64, ptr %initial_bytes, align 8
  %6 = load ptr, ptr %migration.addr, align 8
  %precopy_init_size2 = getelementptr inbounds %struct.VFIOMigration, ptr %6, i32 0, i32 8
  store i64 %5, ptr %precopy_init_size2, align 8
  %dirty_bytes = getelementptr inbounds %struct.vfio_precopy_info, ptr %precopy, i32 0, i32 3
  %7 = load i64, ptr %dirty_bytes, align 8
  %8 = load ptr, ptr %migration.addr, align 8
  %precopy_dirty_size3 = getelementptr inbounds %struct.VFIOMigration, ptr %8, i32 0, i32 9
  store i64 %7, ptr %precopy_dirty_size3, align 8
  store i32 0, ptr %retval, align 4
  br label %return

return:                                           ; preds = %if.end, %if.then
  %9 = load i32, ptr %retval, align 4
  ret i32 %9
}

; Function Attrs: nounwind sspstrong uwtable
define internal i32 @vfio_query_stop_copy_size(ptr noundef %vbasedev, ptr noundef %stop_copy_size) #0 {
entry:
  %retval = alloca i32, align 4
  %vbasedev.addr = alloca ptr, align 8
  %stop_copy_size.addr = alloca ptr, align 8
  %buf = alloca [2 x i64], align 16
  %feature = alloca ptr, align 8
  %mig_data_size = alloca ptr, align 8
  store ptr %vbasedev, ptr %vbasedev.addr, align 8
  store ptr %stop_copy_size, ptr %stop_copy_size.addr, align 8
  call void @llvm.memset.p0.i64(ptr align 16 %buf, i8 0, i64 16, i1 false)
  %arraydecay = getelementptr inbounds [2 x i64], ptr %buf, i64 0, i64 0
  store ptr %arraydecay, ptr %feature, align 8
  %0 = load ptr, ptr %feature, align 8
  %data = getelementptr inbounds %struct.vfio_device_feature, ptr %0, i32 0, i32 2
  %arraydecay1 = getelementptr inbounds [0 x i8], ptr %data, i64 0, i64 0
  store ptr %arraydecay1, ptr %mig_data_size, align 8
  %1 = load ptr, ptr %feature, align 8
  %argsz = getelementptr inbounds %struct.vfio_device_feature, ptr %1, i32 0, i32 0
  store i32 16, ptr %argsz, align 4
  %2 = load ptr, ptr %feature, align 8
  %flags = getelementptr inbounds %struct.vfio_device_feature, ptr %2, i32 0, i32 1
  store i32 65545, ptr %flags, align 4
  %3 = load ptr, ptr %vbasedev.addr, align 8
  %fd = getelementptr inbounds %struct.VFIODevice, ptr %3, i32 0, i32 8
  %4 = load i32, ptr %fd, align 8
  %5 = load ptr, ptr %feature, align 8
  %call = call i32 (i32, i64, ...) @ioctl(i32 noundef %4, i64 noundef 15221, ptr noundef %5) #9
  %tobool = icmp ne i32 %call, 0
  br i1 %tobool, label %if.then, label %if.end

if.then:                                          ; preds = %entry
  %call2 = call ptr @__errno_location() #11
  %6 = load i32, ptr %call2, align 4
  %sub = sub i32 0, %6
  store i32 %sub, ptr %retval, align 4
  br label %return

if.end:                                           ; preds = %entry
  %7 = load ptr, ptr %mig_data_size, align 8
  %stop_copy_length = getelementptr inbounds %struct.vfio_device_feature_mig_data_size, ptr %7, i32 0, i32 0
  %8 = load i64, ptr %stop_copy_length, align 8
  %9 = load ptr, ptr %stop_copy_size.addr, align 8
  store i64 %8, ptr %9, align 8
  store i32 0, ptr %retval, align 4
  br label %return

return:                                           ; preds = %if.end, %if.then
  %10 = load i32, ptr %retval, align 4
  ret i32 %10
}

; Function Attrs: nounwind sspstrong uwtable
define internal void @vfio_state_pending_exact(ptr noundef %opaque, ptr noundef %must_precopy, ptr noundef %can_postcopy) #0 {
entry:
  %opaque.addr = alloca ptr, align 8
  %must_precopy.addr = alloca ptr, align 8
  %can_postcopy.addr = alloca ptr, align 8
  %vbasedev = alloca ptr, align 8
  %migration = alloca ptr, align 8
  %stop_copy_size = alloca i64, align 8
  store ptr %opaque, ptr %opaque.addr, align 8
  store ptr %must_precopy, ptr %must_precopy.addr, align 8
  store ptr %can_postcopy, ptr %can_postcopy.addr, align 8
  %0 = load ptr, ptr %opaque.addr, align 8
  store ptr %0, ptr %vbasedev, align 8
  %1 = load ptr, ptr %vbasedev, align 8
  %migration1 = getelementptr inbounds %struct.VFIODevice, ptr %1, i32 0, i32 19
  %2 = load ptr, ptr %migration1, align 8
  store ptr %2, ptr %migration, align 8
  store i64 107374182400, ptr %stop_copy_size, align 8
  %3 = load ptr, ptr %vbasedev, align 8
  %call = call i32 @vfio_query_stop_copy_size(ptr noundef %3, ptr noundef %stop_copy_size)
  %4 = load i64, ptr %stop_copy_size, align 8
  %5 = load ptr, ptr %must_precopy.addr, align 8
  %6 = load i64, ptr %5, align 8
  %add = add i64 %6, %4
  store i64 %add, ptr %5, align 8
  %7 = load ptr, ptr %vbasedev, align 8
  %call2 = call zeroext i1 @vfio_device_state_is_precopy(ptr noundef %7)
  br i1 %call2, label %if.then, label %if.end

if.then:                                          ; preds = %entry
  %8 = load ptr, ptr %migration, align 8
  %call3 = call i32 @vfio_query_precopy_size(ptr noundef %8)
  %9 = load ptr, ptr %migration, align 8
  %precopy_init_size = getelementptr inbounds %struct.VFIOMigration, ptr %9, i32 0, i32 8
  %10 = load i64, ptr %precopy_init_size, align 8
  %11 = load ptr, ptr %migration, align 8
  %precopy_dirty_size = getelementptr inbounds %struct.VFIOMigration, ptr %11, i32 0, i32 9
  %12 = load i64, ptr %precopy_dirty_size, align 8
  %add4 = add i64 %10, %12
  %13 = load ptr, ptr %must_precopy.addr, align 8
  %14 = load i64, ptr %13, align 8
  %add5 = add i64 %14, %add4
  store i64 %add5, ptr %13, align 8
  br label %if.end

if.end:                                           ; preds = %if.then, %entry
  %15 = load ptr, ptr %vbasedev, align 8
  %name = getelementptr inbounds %struct.VFIODevice, ptr %15, i32 0, i32 6
  %16 = load ptr, ptr %name, align 8
  %17 = load ptr, ptr %must_precopy.addr, align 8
  %18 = load i64, ptr %17, align 8
  %19 = load ptr, ptr %can_postcopy.addr, align 8
  %20 = load i64, ptr %19, align 8
  %21 = load i64, ptr %stop_copy_size, align 8
  %22 = load ptr, ptr %migration, align 8
  %precopy_init_size6 = getelementptr inbounds %struct.VFIOMigration, ptr %22, i32 0, i32 8
  %23 = load i64, ptr %precopy_init_size6, align 8
  %24 = load ptr, ptr %migration, align 8
  %precopy_dirty_size7 = getelementptr inbounds %struct.VFIOMigration, ptr %24, i32 0, i32 9
  %25 = load i64, ptr %precopy_dirty_size7, align 8
  call void @trace_vfio_state_pending_exact(ptr noundef %16, i64 noundef %18, i64 noundef %20, i64 noundef %21, i64 noundef %23, i64 noundef %25)
  ret void
}