; Function Attrs: nounwind sspstrong uwtable
define internal void @vfio_state_pending_exact(ptr noundef %opaque, ptr noundef captures(none) %must_precopy, ptr noundef readonly captures(none) %can_postcopy) #2 {
entry:
  %_now.i.i = alloca %struct.timeval, align 8
  %precopy.i = alloca %struct.vfio_precopy_info, align 8
  %buf.i = alloca [2 x i64], align 16
  %migration1 = getelementptr inbounds nuw i8, ptr %opaque, i64 128
  %0 = load ptr, ptr %migration1, align 8
  %1 = getelementptr i8, ptr %opaque, i64 88
  %opaque.val = load i32, ptr %1, align 8
  call void @llvm.lifetime.start.p0(i64 16, ptr nonnull %buf.i)
  call void @llvm.memset.p0.i64(ptr noundef nonnull align 16 dereferenceable(16) %buf.i, i8 0, i64 16, i1 false)
  store i32 16, ptr %buf.i, align 16
  %flags.i = getelementptr inbounds nuw i8, ptr %buf.i, i64 4
  store i32 65545, ptr %flags.i, align 4
  %call.i = call i32 (i32, i64, ...) @ioctl(i32 noundef %opaque.val, i64 noundef 15221, ptr noundef nonnull %buf.i) #16
  %tobool.not.i = icmp eq i32 %call.i, 0
  %data.i = getelementptr inbounds nuw i8, ptr %buf.i, i64 8
  %2 = load i64, ptr %data.i, align 8
  %stop_copy_size.0 = select i1 %tobool.not.i, i64 %2, i64 107374182400
  call void @llvm.lifetime.end.p0(i64 16, ptr nonnull %buf.i)
  %3 = load i64, ptr %must_precopy, align 8
  %add = add i64 %3, %stop_copy_size.0
  store i64 %add, ptr %must_precopy, align 8
  %call2 = call zeroext i1 @vfio_device_state_is_precopy(ptr noundef nonnull %opaque) #16
  br i1 %call2, label %if.then, label %entry.if.end_crit_edge

entry.if.end_crit_edge:                           ; preds = %entry
  %.pre18 = load i64, ptr %must_precopy, align 8
  br label %if.end

if.then:                                          ; preds = %entry
  call void @llvm.lifetime.start.p0(i64 24, ptr nonnull %precopy.i)
  call void @llvm.memcpy.p0.p0.i64(ptr noundef nonnull align 8 dereferenceable(24) %precopy.i, ptr noundef nonnull align 8 dereferenceable(24) @__const.vfio_query_precopy_size.precopy, i64 24, i1 false)
  %precopy_init_size.i = getelementptr inbounds nuw i8, ptr %0, i64 72
  %data_fd.i = getelementptr inbounds nuw i8, ptr %0, i64 44
  call void @llvm.memset.p0.i64(ptr noundef nonnull align 8 dereferenceable(16) %precopy_init_size.i, i8 0, i64 16, i1 false)
  %4 = load i32, ptr %data_fd.i, align 4
  %call.i10 = call i32 (i32, i64, ...) @ioctl(i32 noundef %4, i64 noundef 15225, ptr noundef nonnull %precopy.i) #16
  %tobool.not.i11 = icmp eq i32 %call.i10, 0
  br i1 %tobool.not.i11, label %if.end.i15, label %if.then.vfio_query_precopy_size.exit_crit_edge

if.then.vfio_query_precopy_size.exit_crit_edge:   ; preds = %if.then
  %.pre = load i64, ptr %precopy_init_size.i, align 8
  %precopy_dirty_size.phi.trans.insert = getelementptr inbounds nuw i8, ptr %0, i64 80
  %.pre17 = load i64, ptr %precopy_dirty_size.phi.trans.insert, align 8
  br label %vfio_query_precopy_size.exit

if.end.i15:                                       ; preds = %if.then
  %precopy_dirty_size.i = getelementptr inbounds nuw i8, ptr %0, i64 80
  %initial_bytes.i = getelementptr inbounds nuw i8, ptr %precopy.i, i64 8
  %5 = load i64, ptr %initial_bytes.i, align 8
  store i64 %5, ptr %precopy_init_size.i, align 8
  %dirty_bytes.i = getelementptr inbounds nuw i8, ptr %precopy.i, i64 16
  %6 = load i64, ptr %dirty_bytes.i, align 8
  store i64 %6, ptr %precopy_dirty_size.i, align 8
  br label %vfio_query_precopy_size.exit

vfio_query_precopy_size.exit:                     ; preds = %if.then.vfio_query_precopy_size.exit_crit_edge, %if.end.i15
  %7 = phi i64 [ %.pre17, %if.then.vfio_query_precopy_size.exit_crit_edge ], [ %6, %if.end.i15 ]
  %8 = phi i64 [ %.pre, %if.then.vfio_query_precopy_size.exit_crit_edge ], [ %5, %if.end.i15 ]
  call void @llvm.lifetime.end.p0(i64 24, ptr nonnull %precopy.i)
  %add4 = add i64 %7, %8
  %9 = load i64, ptr %must_precopy, align 8
  %add5 = add i64 %add4, %9
  store i64 %add5, ptr %must_precopy, align 8
  br label %if.end

if.end:                                           ; preds = %entry.if.end_crit_edge, %vfio_query_precopy_size.exit
  %10 = phi i64 [ %.pre18, %entry.if.end_crit_edge ], [ %add5, %vfio_query_precopy_size.exit ]
  %name = getelementptr inbounds nuw i8, ptr %opaque, i64 72
  %11 = load ptr, ptr %name, align 8
  %12 = load i64, ptr %can_postcopy, align 8
  %precopy_init_size6 = getelementptr inbounds nuw i8, ptr %0, i64 72
  %13 = load i64, ptr %precopy_init_size6, align 8
  %precopy_dirty_size7 = getelementptr inbounds nuw i8, ptr %0, i64 80
  %14 = load i64, ptr %precopy_dirty_size7, align 8
  call void @llvm.lifetime.start.p0(i64 16, ptr nonnull %_now.i.i)
  %15 = load i32, ptr @trace_events_enabled_count, align 4
  %tobool.i.i = icmp ne i32 %15, 0
  %16 = load i16, ptr @_TRACE_VFIO_STATE_PENDING_EXACT_DSTATE, align 2
  %tobool4.i.i = icmp ne i16 %16, 0
  %or.cond.i.i = select i1 %tobool.i.i, i1 %tobool4.i.i, i1 false
  br i1 %or.cond.i.i, label %land.lhs.true5.i.i, label %trace_vfio_state_pending_exact.exit

land.lhs.true5.i.i:                               ; preds = %if.end
  %17 = load i32, ptr @qemu_loglevel, align 4
  %and.i.i.i = and i32 %17, 32768
  %cmp.i.not.i.i = icmp eq i32 %and.i.i.i, 0
  br i1 %cmp.i.not.i.i, label %trace_vfio_state_pending_exact.exit, label %if.then.i.i

if.then.i.i:                                      ; preds = %land.lhs.true5.i.i
  %18 = load i8, ptr @message_with_timestamp, align 1
  %tobool7.i.i = trunc i8 %18 to i1
  br i1 %tobool7.i.i, label %if.then8.i.i, label %if.else.i.i

if.then8.i.i:                                     ; preds = %if.then.i.i
  %call9.i.i = call i32 @gettimeofday(ptr noundef nonnull %_now.i.i, ptr noundef null) #16
  %call10.i.i = call i32 @qemu_get_thread_id() #16
  %19 = load i64, ptr %_now.i.i, align 8
  %tv_usec.i.i = getelementptr inbounds nuw i8, ptr %_now.i.i, i64 8
  %20 = load i64, ptr %tv_usec.i.i, align 8
  call void (ptr, ...) @qemu_log(ptr noundef nonnull @.str.46, i32 noundef %call10.i.i, i64 noundef %19, i64 noundef %20, ptr noundef %11, i64 noundef %10, i64 noundef %12, i64 noundef %stop_copy_size.0, i64 noundef %13, i64 noundef %14) #16
  br label %trace_vfio_state_pending_exact.exit

if.else.i.i:                                      ; preds = %if.then.i.i
  call void (ptr, ...) @qemu_log(ptr noundef nonnull @.str.47, ptr noundef %11, i64 noundef %10, i64 noundef %12, i64 noundef %stop_copy_size.0, i64 noundef %13, i64 noundef %14) #16
  br label %trace_vfio_state_pending_exact.exit

trace_vfio_state_pending_exact.exit:              ; preds = %if.end, %land.lhs.true5.i.i, %if.then8.i.i, %if.else.i.i
  call void @llvm.lifetime.end.p0(i64 16, ptr nonnull %_now.i.i)
  ret void
}